target datalayout = "e-m:e-p270:32:32-p271:32:32-p272:64:64-i64:64-i128:128-f80:128-n8:16:32:64-S128"
target triple = "x86_64-pc-linux-gnu"

%struct.pxr_nc_1_0_ColorSpace = type { %struct.pxr_nc_1_0_ColorSpaceDescriptor, float, float, %struct.pxr_nc_1_0_M33f }
%struct.pxr_nc_1_0_ColorSpaceDescriptor = type { ptr, %struct.pxr_nc_1_0_Chromaticity, %struct.pxr_nc_1_0_Chromaticity, %struct.pxr_nc_1_0_Chromaticity, %struct.pxr_nc_1_0_Chromaticity, float, float }
%struct.pxr_nc_1_0_Chromaticity = type { float, float }
%struct.pxr_nc_1_0_M33f = type { [9 x float] }

; Function Attrs: nounwind uwtable
define ptr @pxr_nc_1_0_CreateColorSpace(ptr noundef %0) #0 {
  %2 = alloca ptr, align 8
  %3 = alloca ptr, align 8
  %4 = alloca ptr, align 8
  store ptr %0, ptr %3, align 8
  %5 = load ptr, ptr %3, align 8
  %6 = icmp ne ptr %5, null
  br i1 %6, label %8, label %7

7:                                                ; preds = %1
  store ptr null, ptr %2, align 8
  br label %22

8:                                                ; preds = %1
  %9 = call noalias ptr @calloc(i64 noundef 1, i64 noundef 96) #9
  store ptr %9, ptr %4, align 8
  %10 = load ptr, ptr %4, align 8
  %11 = getelementptr inbounds nuw %struct.pxr_nc_1_0_ColorSpace, ptr %10, i32 0, i32 0
  %12 = load ptr, ptr %3, align 8
  call void @llvm.memcpy.p0.p0.i64(ptr align 8 %11, ptr align 8 %12, i64 48, i1 false)
  %13 = load ptr, ptr %3, align 8
  %14 = getelementptr inbounds nuw %struct.pxr_nc_1_0_ColorSpaceDescriptor, ptr %13, i32 0, i32 0
  %15 = load ptr, ptr %14, align 8
  %16 = call noalias ptr @strdup(ptr noundef %15) #8
  %17 = load ptr, ptr %4, align 8
  %18 = getelementptr inbounds nuw %struct.pxr_nc_1_0_ColorSpace, ptr %17, i32 0, i32 0
  %19 = getelementptr inbounds nuw %struct.pxr_nc_1_0_ColorSpaceDescriptor, ptr %18, i32 0, i32 0
  store ptr %16, ptr %19, align 8
  %20 = load ptr, ptr %4, align 8
  call void @_NcInitColorSpace(ptr noundef %20)
  %21 = load ptr, ptr %4, align 8
  store ptr %21, ptr %2, align 8
  br label %22

22:                                               ; preds = %8, %7
  %23 = load ptr, ptr %2, align 8
  ret ptr %23
}