; Function Attrs: mustprogress nofree nounwind willreturn uwtable
define noundef ptr @pxr_nc_1_0_CreateColorSpace(ptr noundef readonly %0) local_unnamed_addr #7 {
  %.not = icmp eq ptr %0, null
  br i1 %.not, label %6, label %2

2:                                                ; preds = %1
  %3 = tail call noalias dereferenceable_or_null(96) ptr @calloc(i64 noundef 1, i64 noundef 96) #23
  tail call void @llvm.memcpy.p0.p0.i64(ptr noundef nonnull align 8 dereferenceable(48) %3, ptr noundef nonnull align 8 dereferenceable(48) %0, i64 48, i1 false)
  %4 = load ptr, ptr %0, align 8
  %5 = tail call noalias ptr @strdup(ptr noundef %4) #22
  store ptr %5, ptr %3, align 8
  tail call fastcc void @_NcInitColorSpace(ptr noundef nonnull %3)
  br label %6

6:                                                ; preds = %1, %2
  %.0 = phi ptr [ %3, %2 ], [ null, %1 ]
  ret ptr %.0
}